target datalayout = "e-m:e-p270:32:32-p271:32:32-p272:64:64-i64:64-i128:128-f80:128-n8:16:32:64-S128"
target triple = "x86_64-pc-linux-gnu"

%"struct.absl::debugging_internal::State" = type { ptr, ptr, i32, i32, i32, %"struct.absl::debugging_internal::ParseState" }
%"struct.absl::debugging_internal::ParseState" = type { i32, i32, i32, i32 }
%"class.absl::debugging_internal::(anonymous namespace)::ComplexityGuard" = type { ptr }

@.str.243 = private unnamed_addr constant [3 x i8] c"St\00", align 1
@.str.269 = private unnamed_addr constant [6 x i8] c"std::\00", align 1

; Function Attrs: mustprogress nounwind uwtable
define internal noundef i64 @_ZN4absl18debugging_internalL6StrLenEPKc(ptr noundef %0) #3 {
  %2 = alloca ptr, align 8
  %3 = alloca i64, align 8
  store ptr %0, ptr %2, align 8, !tbaa !4
  call void @llvm.lifetime.start.p0(i64 8, ptr %3) #12
  store i64 0, ptr %3, align 8, !tbaa !9
  br label %4

4:                                                ; preds = %9, %1
  %5 = load ptr, ptr %2, align 8, !tbaa !4
  %6 = load i8, ptr %5, align 1, !tbaa !11
  %7 = sext i8 %6 to i32
  %8 = icmp ne i32 %7, 0
  br i1 %8, label %9, label %14

9:                                                ; preds = %4
  %10 = load ptr, ptr %2, align 8, !tbaa !4
  %11 = getelementptr inbounds nuw i8, ptr %10, i32 1
  store ptr %11, ptr %2, align 8, !tbaa !4
  %12 = load i64, ptr %3, align 8, !tbaa !9
  %13 = add i64 %12, 1
  store i64 %13, ptr %3, align 8, !tbaa !9
  br label %4, !llvm.loop !67

14:                                               ; preds = %4
  %15 = load i64, ptr %3, align 8, !tbaa !9
  call void @llvm.lifetime.end.p0(i64 8, ptr %3) #12
  ret i64 %15
}

; Function Attrs: mustprogress nounwind uwtable
define internal void @_ZN4absl18debugging_internal12_GLOBAL__N_119UpdateHighWaterMarkEPNS0_5StateE(ptr noundef %0) #3 {
  %2 = alloca ptr, align 8
  store ptr %0, ptr %2, align 8, !tbaa !16
  ret void
}

; Function Attrs: inlinehint mustprogress nounwind uwtable
define internal noundef ptr @_ZN4absl18debugging_internalL14RemainingInputEPNS0_5StateE(ptr noundef %0) #5 {
  %2 = alloca ptr, align 8
  store ptr %0, ptr %2, align 8, !tbaa !16
  %3 = load ptr, ptr %2, align 8, !tbaa !16
  %4 = getelementptr inbounds nuw %"struct.absl::debugging_internal::State", ptr %3, i32 0, i32 0
  %5 = load ptr, ptr %4, align 8, !tbaa !17
  %6 = load ptr, ptr %2, align 8, !tbaa !16
  %7 = getelementptr inbounds nuw %"struct.absl::debugging_internal::State", ptr %6, i32 0, i32 5
  %8 = getelementptr inbounds nuw %"struct.absl::debugging_internal::ParseState", ptr %7, i32 0, i32 0
  %9 = load i32, ptr %8, align 4, !tbaa !22
  %10 = sext i32 %9 to i64
  %11 = getelementptr inbounds i8, ptr %5, i64 %10
  ret ptr %11
}

; Function Attrs: mustprogress nounwind uwtable
define internal void @_ZN4absl18debugging_internal12_GLOBAL__N_115ComplexityGuardD2Ev(ptr noundef nonnull align 8 dereferenceable(8) %0) unnamed_addr #3 align 2 {
  %2 = alloca ptr, align 8
  store ptr %0, ptr %2, align 8, !tbaa !27
  %3 = load ptr, ptr %2, align 8
  %4 = getelementptr inbounds nuw %"class.absl::debugging_internal::(anonymous namespace)::ComplexityGuard", ptr %3, i32 0, i32 0
  %5 = load ptr, ptr %4, align 8, !tbaa !29
  %6 = getelementptr inbounds nuw %"struct.absl::debugging_internal::State", ptr %5, i32 0, i32 3
  %7 = load i32, ptr %6, align 4, !tbaa !20
  %8 = add nsw i32 %7, -1
  store i32 %8, ptr %6, align 4, !tbaa !20
  ret void
}

; Function Attrs: mustprogress uwtable
define internal noundef zeroext i1 @_ZN4absl18debugging_internalL11MaybeAppendEPNS0_5StateEPKc(ptr noundef %0, ptr noundef %1) #0 {
  %3 = alloca ptr, align 8
  %4 = alloca ptr, align 8
  %5 = alloca i64, align 8
  store ptr %0, ptr %3, align 8, !tbaa !16
  store ptr %1, ptr %4, align 8, !tbaa !4
  %6 = load ptr, ptr %3, align 8, !tbaa !16
  %7 = getelementptr inbounds nuw %"struct.absl::debugging_internal::State", ptr %6, i32 0, i32 5
  %8 = getelementptr inbounds nuw %"struct.absl::debugging_internal::ParseState", ptr %7, i32 0, i32 3
  %9 = load i32, ptr %8, align 4
  %10 = lshr i32 %9, 31
  %11 = icmp ne i32 %10, 0
  br i1 %11, label %12, label %18

12:                                               ; preds = %2
  call void @llvm.lifetime.start.p0(i64 8, ptr %5) #12
  %13 = load ptr, ptr %4, align 8, !tbaa !4
  %14 = call noundef i64 @_ZN4absl18debugging_internalL6StrLenEPKc(ptr noundef %13)
  store i64 %14, ptr %5, align 8, !tbaa !9
  %15 = load ptr, ptr %3, align 8, !tbaa !16
  %16 = load ptr, ptr %4, align 8, !tbaa !4
  %17 = load i64, ptr %5, align 8, !tbaa !9
  call void @_ZN4absl18debugging_internalL21MaybeAppendWithLengthEPNS0_5StateEPKcm(ptr noundef %15, ptr noundef %16, i64 noundef %17)
  call void @llvm.lifetime.end.p0(i64 8, ptr %5) #12
  br label %18

18:                                               ; preds = %12, %2
  ret i1 true
}

; Function Attrs: mustprogress uwtable
define internal noundef zeroext i1 @_ZN4absl18debugging_internalL17ParseTwoCharTokenEPNS0_5StateEPKc(ptr noundef %0, ptr noundef %1) #0 personality ptr @__gxx_personality_v0 {
  %3 = alloca i1, align 1
  %4 = alloca ptr, align 8
  %5 = alloca ptr, align 8
  %6 = alloca %"class.absl::debugging_internal::(anonymous namespace)::ComplexityGuard", align 8
  %7 = alloca i32, align 4
  %8 = alloca ptr, align 8
  %9 = alloca i32, align 4
  store ptr %0, ptr %4, align 8, !tbaa !16
  store ptr %1, ptr %5, align 8, !tbaa !4
  call void @llvm.lifetime.start.p0(i64 8, ptr %6) #12
  %10 = load ptr, ptr %4, align 8, !tbaa !16
  call void @_ZN4absl18debugging_internal12_GLOBAL__N_115ComplexityGuardC2EPNS0_5StateE(ptr noundef nonnull align 8 dereferenceable(8) %6, ptr noundef %10)
  %11 = call noundef zeroext i1 @_ZNK4absl18debugging_internal12_GLOBAL__N_115ComplexityGuard12IsTooComplexEv(ptr noundef nonnull align 8 dereferenceable(8) %6)
  br i1 %11, label %12, label %13

12:                                               ; preds = %2
  store i1 false, ptr %3, align 1
  store i32 1, ptr %7, align 4
  br label %50

13:                                               ; preds = %2
  %14 = load ptr, ptr %4, align 8, !tbaa !16
  %15 = invoke noundef ptr @_ZN4absl18debugging_internalL14RemainingInputEPNS0_5StateE(ptr noundef %14)
          to label %16 unwind label %45

16:                                               ; preds = %13
  %17 = getelementptr inbounds i8, ptr %15, i64 0
  %18 = load i8, ptr %17, align 1, !tbaa !11
  %19 = sext i8 %18 to i32
  %20 = load ptr, ptr %5, align 8, !tbaa !4
  %21 = getelementptr inbounds i8, ptr %20, i64 0
  %22 = load i8, ptr %21, align 1, !tbaa !11
  %23 = sext i8 %22 to i32
  %24 = icmp eq i32 %19, %23
  br i1 %24, label %25, label %49

25:                                               ; preds = %16
  %26 = load ptr, ptr %4, align 8, !tbaa !16
  %27 = invoke noundef ptr @_ZN4absl18debugging_internalL14RemainingInputEPNS0_5StateE(ptr noundef %26)
          to label %28 unwind label %45

28:                                               ; preds = %25
  %29 = getelementptr inbounds i8, ptr %27, i64 1
  %30 = load i8, ptr %29, align 1, !tbaa !11
  %31 = sext i8 %30 to i32
  %32 = load ptr, ptr %5, align 8, !tbaa !4
  %33 = getelementptr inbounds i8, ptr %32, i64 1
  %34 = load i8, ptr %33, align 1, !tbaa !11
  %35 = sext i8 %34 to i32
  %36 = icmp eq i32 %31, %35
  br i1 %36, label %37, label %49

37:                                               ; preds = %28
  %38 = load ptr, ptr %4, align 8, !tbaa !16
  %39 = getelementptr inbounds nuw %"struct.absl::debugging_internal::State", ptr %38, i32 0, i32 5
  %40 = getelementptr inbounds nuw %"struct.absl::debugging_internal::ParseState", ptr %39, i32 0, i32 0
  %41 = load i32, ptr %40, align 4, !tbaa !22
  %42 = add nsw i32 %41, 2
  store i32 %42, ptr %40, align 4, !tbaa !22
  %43 = load ptr, ptr %4, align 8, !tbaa !16
  invoke void @_ZN4absl18debugging_internal12_GLOBAL__N_119UpdateHighWaterMarkEPNS0_5StateE(ptr noundef %43)
          to label %44 unwind label %45

44:                                               ; preds = %37
  store i1 true, ptr %3, align 1
  store i32 1, ptr %7, align 4
  br label %50

45:                                               ; preds = %37, %25, %13
  %46 = landingpad { ptr, i32 }
          cleanup
  %47 = extractvalue { ptr, i32 } %46, 0
  store ptr %47, ptr %8, align 8
  %48 = extractvalue { ptr, i32 } %46, 1
  store i32 %48, ptr %9, align 4
  call void @_ZN4absl18debugging_internal12_GLOBAL__N_115ComplexityGuardD2Ev(ptr noundef nonnull align 8 dereferenceable(8) %6) #12
  call void @llvm.lifetime.end.p0(i64 8, ptr %6) #12
  br label %52

49:                                               ; preds = %28, %16
  store i1 false, ptr %3, align 1
  store i32 1, ptr %7, align 4
  br label %50

50:                                               ; preds = %49, %44, %12
  call void @_ZN4absl18debugging_internal12_GLOBAL__N_115ComplexityGuardD2Ev(ptr noundef nonnull align 8 dereferenceable(8) %6) #12
  call void @llvm.lifetime.end.p0(i64 8, ptr %6) #12
  %51 = load i1, ptr %3, align 1
  ret i1 %51

52:                                               ; preds = %45
  %53 = load ptr, ptr %8, align 8
  %54 = load i32, ptr %9, align 4
  %55 = insertvalue { ptr, i32 } poison, ptr %53, 0
  %56 = insertvalue { ptr, i32 } %55, i32 %54, 1
  resume { ptr, i32 } %56
}

; Function Attrs: mustprogress nounwind uwtable
define internal noundef zeroext i1 @_ZNK4absl18debugging_internal12_GLOBAL__N_115ComplexityGuard12IsTooComplexEv(ptr noundef nonnull align 8 dereferenceable(8) %0) #3 align 2 {
  %2 = alloca i1, align 1
  %3 = alloca ptr, align 8
  store ptr %0, ptr %3, align 8, !tbaa !27
  %4 = load ptr, ptr %3, align 8
  %5 = getelementptr inbounds nuw %"class.absl::debugging_internal::(anonymous namespace)::ComplexityGuard", ptr %4, i32 0, i32 0
  %6 = load ptr, ptr %5, align 8, !tbaa !29
  %7 = getelementptr inbounds nuw %"struct.absl::debugging_internal::State", ptr %6, i32 0, i32 3
  %8 = load i32, ptr %7, align 4, !tbaa !20
  %9 = icmp sgt i32 %8, 256
  br i1 %9, label %16, label %10

10:                                               ; preds = %1
  %11 = getelementptr inbounds nuw %"class.absl::debugging_internal::(anonymous namespace)::ComplexityGuard", ptr %4, i32 0, i32 0
  %12 = load ptr, ptr %11, align 8, !tbaa !29
  %13 = getelementptr inbounds nuw %"struct.absl::debugging_internal::State", ptr %12, i32 0, i32 4
  %14 = load i32, ptr %13, align 8, !tbaa !21
  %15 = icmp sgt i32 %14, 131072
  br i1 %15, label %16, label %17

16:                                               ; preds = %10, %1
  store i1 true, ptr %2, align 1
  br label %18

17:                                               ; preds = %10
  store i1 false, ptr %2, align 1
  br label %18

18:                                               ; preds = %17, %16
  %19 = load i1, ptr %2, align 1
  ret i1 %19
}

; Function Attrs: mustprogress nounwind uwtable
define internal void @_ZN4absl18debugging_internal12_GLOBAL__N_115ComplexityGuardC2EPNS0_5StateE(ptr noundef nonnull align 8 dereferenceable(8) %0, ptr noundef %1) unnamed_addr #3 align 2 {
  %3 = alloca ptr, align 8
  %4 = alloca ptr, align 8
  store ptr %0, ptr %3, align 8, !tbaa !27
  store ptr %1, ptr %4, align 8, !tbaa !16
  %5 = load ptr, ptr %3, align 8
  %6 = getelementptr inbounds nuw %"class.absl::debugging_internal::(anonymous namespace)::ComplexityGuard", ptr %5, i32 0, i32 0
  %7 = load ptr, ptr %4, align 8, !tbaa !16
  store ptr %7, ptr %6, align 8, !tbaa !29
  %8 = load ptr, ptr %4, align 8, !tbaa !16
  %9 = getelementptr inbounds nuw %"struct.absl::debugging_internal::State", ptr %8, i32 0, i32 3
  %10 = load i32, ptr %9, align 4, !tbaa !20
  %11 = add nsw i32 %10, 1
  store i32 %11, ptr %9, align 4, !tbaa !20
  %12 = load ptr, ptr %4, align 8, !tbaa !16
  %13 = getelementptr inbounds nuw %"struct.absl::debugging_internal::State", ptr %12, i32 0, i32 4
  %14 = load i32, ptr %13, align 8, !tbaa !21
  %15 = add nsw i32 %14, 1
  store i32 %15, ptr %13, align 8, !tbaa !21
  ret void
}

; Function Attrs: mustprogress uwtable
define internal noundef zeroext i1 @_ZN4absl18debugging_internalL17ParseUnscopedNameEPNS0_5StateE(ptr noundef %0) #0 personality ptr @__gxx_personality_v0 {
  %2 = alloca i1, align 1
  %3 = alloca ptr, align 8
  %4 = alloca %"class.absl::debugging_internal::(anonymous namespace)::ComplexityGuard", align 8
  %5 = alloca i32, align 4
  %6 = alloca ptr, align 8
  %7 = alloca i32, align 4
  %8 = alloca %"struct.absl::debugging_internal::ParseState", align 4
  store ptr %0, ptr %3, align 8, !tbaa !16
  call void @llvm.lifetime.start.p0(i64 8, ptr %4) #12
  %9 = load ptr, ptr %3, align 8, !tbaa !16
  call void @_ZN4absl18debugging_internal12_GLOBAL__N_115ComplexityGuardC2EPNS0_5StateE(ptr noundef nonnull align 8 dereferenceable(8) %4, ptr noundef %9)
  %10 = call noundef zeroext i1 @_ZNK4absl18debugging_internal12_GLOBAL__N_115ComplexityGuard12IsTooComplexEv(ptr noundef nonnull align 8 dereferenceable(8) %4)
  br i1 %10, label %11, label %12

11:                                               ; preds = %1
  store i1 false, ptr %2, align 1
  store i32 1, ptr %5, align 4
  br label %44

12:                                               ; preds = %1
  %13 = load ptr, ptr %3, align 8, !tbaa !16
  %14 = invoke noundef zeroext i1 @_ZN4absl18debugging_internalL20ParseUnqualifiedNameEPNS0_5StateE(ptr noundef %13)
          to label %15 unwind label %17

15:                                               ; preds = %12
  br i1 %14, label %16, label %21

16:                                               ; preds = %15
  store i1 true, ptr %2, align 1
  store i32 1, ptr %5, align 4
  br label %44

17:                                               ; preds = %12
  %18 = landingpad { ptr, i32 }
          cleanup
  %19 = extractvalue { ptr, i32 } %18, 0
  store ptr %19, ptr %6, align 8
  %20 = extractvalue { ptr, i32 } %18, 1
  store i32 %20, ptr %7, align 4
  br label %46

21:                                               ; preds = %15
  call void @llvm.lifetime.start.p0(i64 16, ptr %8) #12
  %22 = load ptr, ptr %3, align 8, !tbaa !16
  %23 = getelementptr inbounds nuw %"struct.absl::debugging_internal::State", ptr %22, i32 0, i32 5
  call void @llvm.memcpy.p0.p0.i64(ptr align 4 %8, ptr align 4 %23, i64 16, i1 false), !tbaa.struct !39
  %24 = load ptr, ptr %3, align 8, !tbaa !16
  %25 = invoke noundef zeroext i1 @_ZN4absl18debugging_internalL17ParseTwoCharTokenEPNS0_5StateEPKc(ptr noundef %24, ptr noundef @.str.243)
          to label %26 unwind label %36

26:                                               ; preds = %21
  br i1 %25, label %27, label %40

27:                                               ; preds = %26
  %28 = load ptr, ptr %3, align 8, !tbaa !16
  %29 = invoke noundef zeroext i1 @_ZN4absl18debugging_internalL11MaybeAppendEPNS0_5StateEPKc(ptr noundef %28, ptr noundef @.str.269)
          to label %30 unwind label %36

30:                                               ; preds = %27
  br i1 %29, label %31, label %40

31:                                               ; preds = %30
  %32 = load ptr, ptr %3, align 8, !tbaa !16
  %33 = invoke noundef zeroext i1 @_ZN4absl18debugging_internalL20ParseUnqualifiedNameEPNS0_5StateE(ptr noundef %32)
          to label %34 unwind label %36

34:                                               ; preds = %31
  br i1 %33, label %35, label %40

35:                                               ; preds = %34
  store i1 true, ptr %2, align 1
  store i32 1, ptr %5, align 4
  br label %43

36:                                               ; preds = %31, %27, %21
  %37 = landingpad { ptr, i32 }
          cleanup
  %38 = extractvalue { ptr, i32 } %37, 0
  store ptr %38, ptr %6, align 8
  %39 = extractvalue { ptr, i32 } %37, 1
  store i32 %39, ptr %7, align 4
  call void @llvm.lifetime.end.p0(i64 16, ptr %8) #12
  br label %46

40:                                               ; preds = %34, %30, %26
  %41 = load ptr, ptr %3, align 8, !tbaa !16
  %42 = getelementptr inbounds nuw %"struct.absl::debugging_internal::State", ptr %41, i32 0, i32 5
  call void @llvm.memcpy.p0.p0.i64(ptr align 4 %42, ptr align 4 %8, i64 16, i1 false), !tbaa.struct !39
  store i1 false, ptr %2, align 1
  store i32 1, ptr %5, align 4
  br label %43

43:                                               ; preds = %40, %35
  call void @llvm.lifetime.end.p0(i64 16, ptr %8) #12
  br label %44

44:                                               ; preds = %43, %16, %11
  call void @_ZN4absl18debugging_internal12_GLOBAL__N_115ComplexityGuardD2Ev(ptr noundef nonnull align 8 dereferenceable(8) %4) #12
  call void @llvm.lifetime.end.p0(i64 8, ptr %4) #12
  %45 = load i1, ptr %2, align 1
  ret i1 %45

46:                                               ; preds = %36, %17
  call void @_ZN4absl18debugging_internal12_GLOBAL__N_115ComplexityGuardD2Ev(ptr noundef nonnull align 8 dereferenceable(8) %4) #12
  call void @llvm.lifetime.end.p0(i64 8, ptr %4) #12
  br label %47

47:                                               ; preds = %46
  %48 = load ptr, ptr %6, align 8
  %49 = load i32, ptr %7, align 4
  %50 = insertvalue { ptr, i32 } poison, ptr %48, 0
  %51 = insertvalue { ptr, i32 } %50, i32 %49, 1
  resume { ptr, i32 } %51
}