; Function Attrs: mustprogress nofree nosync memory(readwrite, inaccessiblemem: none) uwtable
define internal fastcc noundef zeroext i1 @_ZN4absl18debugging_internalL17ParseUnscopedNameEPNS0_5StateE(ptr noundef %0) unnamed_addr #6 personality ptr @__gxx_personality_v0 {
  %2 = alloca %"struct.absl::debugging_internal::ParseState", align 4
  %3 = getelementptr inbounds nuw i8, ptr %0, i64 20
  %4 = load i32, ptr %3, align 4, !tbaa !17
  %5 = add nsw i32 %4, 1
  store i32 %5, ptr %3, align 4, !tbaa !17
  %6 = getelementptr inbounds nuw i8, ptr %0, i64 24
  %7 = load i32, ptr %6, align 8, !tbaa !15
  %8 = add nsw i32 %7, 1
  store i32 %8, ptr %6, align 8, !tbaa !15
  %9 = icmp sgt i32 %4, 255
  %10 = icmp sgt i32 %7, 131071
  %or.cond = select i1 %9, i1 true, i1 %10
  br i1 %or.cond, label %_ZNK4absl18debugging_internal12_GLOBAL__N_115ComplexityGuard12IsTooComplexEv.exit.thread, label %11

11:                                               ; preds = %1
  %12 = invoke fastcc noundef zeroext i1 @_ZN4absl18debugging_internalL20ParseUnqualifiedNameEPNS0_5StateE(ptr noundef nonnull %0)
          to label %13 unwind label %14

13:                                               ; preds = %11
  %.pre17 = load i32, ptr %3, align 4, !tbaa !17
  br i1 %12, label %_ZNK4absl18debugging_internal12_GLOBAL__N_115ComplexityGuard12IsTooComplexEv.exit.thread, label %16

14:                                               ; preds = %11
  %15 = landingpad { ptr, i32 }
          cleanup
  br label %44

16:                                               ; preds = %13
  call void @llvm.lifetime.start.p0(i64 16, ptr nonnull %2)
  %17 = getelementptr inbounds nuw i8, ptr %0, i64 28
  call void @llvm.memcpy.p0.p0.i64(ptr noundef nonnull align 4 dereferenceable(16) %2, ptr noundef nonnull align 4 dereferenceable(16) %17, i64 16, i1 false), !tbaa.struct !31
  %18 = add nsw i32 %.pre17, 1
  store i32 %18, ptr %3, align 4, !tbaa !17
  %19 = load i32, ptr %6, align 8, !tbaa !15
  %20 = add nsw i32 %19, 1
  store i32 %20, ptr %6, align 8, !tbaa !15
  %21 = icmp sgt i32 %.pre17, 255
  %22 = icmp sgt i32 %19, 131071
  %or.cond.i = select i1 %21, i1 true, i1 %22
  br i1 %or.cond.i, label %_ZN4absl18debugging_internalL17ParseTwoCharTokenEPNS0_5StateEPKc.exit.thread, label %23

23:                                               ; preds = %16
  %.val11.i = load ptr, ptr %0, align 8, !tbaa !7
  %.val12.i = load i32, ptr %17, align 4, !tbaa !16
  %24 = sext i32 %.val12.i to i64
  %25 = getelementptr inbounds i8, ptr %.val11.i, i64 %24
  %26 = load i8, ptr %25, align 1, !tbaa !4
  %27 = icmp eq i8 %26, 83
  br i1 %27, label %28, label %_ZN4absl18debugging_internalL17ParseTwoCharTokenEPNS0_5StateEPKc.exit.thread

28:                                               ; preds = %23
  %29 = getelementptr inbounds nuw i8, ptr %25, i64 1
  %30 = load i8, ptr %29, align 1, !tbaa !4
  %31 = icmp eq i8 %30, 116
  br i1 %31, label %32, label %_ZN4absl18debugging_internalL17ParseTwoCharTokenEPNS0_5StateEPKc.exit.thread

_ZN4absl18debugging_internalL17ParseTwoCharTokenEPNS0_5StateEPKc.exit.thread: ; preds = %28, %23, %16
  store i32 %.pre17, ptr %3, align 4, !tbaa !17
  br label %40

32:                                               ; preds = %28
  %33 = add nsw i32 %.val12.i, 2
  store i32 %33, ptr %17, align 4, !tbaa !16
  store i32 %.pre17, ptr %3, align 4, !tbaa !17
  %34 = getelementptr inbounds nuw i8, ptr %0, i64 40
  %35 = load i32, ptr %34, align 4
  %.not.i = icmp sgt i32 %35, -1
  br i1 %.not.i, label %_ZN4absl18debugging_internalL11MaybeAppendEPNS0_5StateEPKc.exit, label %.lr.ph.i.i.preheader

.lr.ph.i.i.preheader:                             ; preds = %32
  tail call fastcc void @_ZN4absl18debugging_internalL21MaybeAppendWithLengthEPNS0_5StateEPKcm(ptr noundef nonnull %0, ptr noundef nonnull @.str.269, i64 noundef 5)
  br label %_ZN4absl18debugging_internalL11MaybeAppendEPNS0_5StateEPKc.exit

_ZN4absl18debugging_internalL11MaybeAppendEPNS0_5StateEPKc.exit: ; preds = %32, %.lr.ph.i.i.preheader
  %36 = invoke fastcc noundef zeroext i1 @_ZN4absl18debugging_internalL20ParseUnqualifiedNameEPNS0_5StateE(ptr noundef nonnull %0)
          to label %37 unwind label %38

37:                                               ; preds = %_ZN4absl18debugging_internalL11MaybeAppendEPNS0_5StateEPKc.exit
  br i1 %36, label %41, label %40

38:                                               ; preds = %_ZN4absl18debugging_internalL11MaybeAppendEPNS0_5StateEPKc.exit
  %39 = landingpad { ptr, i32 }
          cleanup
  call void @llvm.lifetime.end.p0(i64 16, ptr nonnull %2)
  br label %44

40:                                               ; preds = %_ZN4absl18debugging_internalL17ParseTwoCharTokenEPNS0_5StateEPKc.exit.thread, %37
  call void @llvm.memcpy.p0.p0.i64(ptr noundef nonnull align 4 dereferenceable(16) %17, ptr noundef nonnull align 4 dereferenceable(16) %2, i64 16, i1 false), !tbaa.struct !31
  br label %41

41:                                               ; preds = %37, %40
  %.1 = phi i1 [ false, %40 ], [ true, %37 ]
  call void @llvm.lifetime.end.p0(i64 16, ptr nonnull %2)
  %.pre = load i32, ptr %3, align 4, !tbaa !17
  br label %_ZNK4absl18debugging_internal12_GLOBAL__N_115ComplexityGuard12IsTooComplexEv.exit.thread

_ZNK4absl18debugging_internal12_GLOBAL__N_115ComplexityGuard12IsTooComplexEv.exit.thread: ; preds = %1, %13, %41
  %42 = phi i32 [ %.pre, %41 ], [ %.pre17, %13 ], [ %5, %1 ]
  %.010 = phi i1 [ %.1, %41 ], [ true, %13 ], [ false, %1 ]
  %43 = add nsw i32 %42, -1
  store i32 %43, ptr %3, align 4, !tbaa !17
  ret i1 %.010

44:                                               ; preds = %38, %14
  %.pn = phi { ptr, i32 } [ %39, %38 ], [ %15, %14 ]
  %45 = load i32, ptr %3, align 4, !tbaa !17
  %46 = add nsw i32 %45, -1
  store i32 %46, ptr %3, align 4, !tbaa !17
  resume { ptr, i32 } %.pn
}